target datalayout = "e-m:e-p270:32:32-p271:32:32-p272:64:64-i64:64-i128:128-f80:128-n8:16:32:64-S128"
target triple = "x86_64-pc-linux-gnu"

%struct._address = type { i32, i32, ptr, ptr }

@.str.243 = private unnamed_addr constant [1 x i8] zeroinitializer, align 1
@.str.280 = private unnamed_addr constant [3 x i8] c"v6\00", align 1
@.str.281 = private unnamed_addr constant [175 x i8] c"((ip%s.src eq %s and dccp.srcport eq %d) and (ip%s.dst eq %s and dccp.dstport eq %d)) or ((ip%s.src eq %s and dccp.srcport eq %d) and (ip%s.dst eq %s and dccp.dstport eq %d))\00", align 1

; Function Attrs: null_pointer_is_valid sspstrong uwtable
define internal ptr @dccp_follow_address_filter(ptr noundef %0, ptr noundef %1, i32 noundef %2, i32 noundef %3) #1 {
  %5 = alloca ptr, align 8
  %6 = alloca ptr, align 8
  %7 = alloca i32, align 4
  %8 = alloca i32, align 4
  %9 = alloca ptr, align 8
  %10 = alloca [46 x i8], align 16
  %11 = alloca [46 x i8], align 16
  store ptr %0, ptr %5, align 8
  store ptr %1, ptr %6, align 8
  store i32 %2, ptr %7, align 4
  store i32 %3, ptr %8, align 4
  call void @llvm.lifetime.start.p0(i64 8, ptr %9) #11
  %12 = load ptr, ptr %5, align 8
  %13 = getelementptr inbounds nuw %struct._address, ptr %12, i32 0, i32 0
  %14 = load i32, ptr %13, align 8
  %15 = icmp eq i32 %14, 3
  %16 = select i1 %15, ptr @.str.280, ptr @.str.243
  store ptr %16, ptr %9, align 8
  call void @llvm.lifetime.start.p0(i64 46, ptr %10) #11
  call void @llvm.lifetime.start.p0(i64 46, ptr %11) #11
  %17 = load ptr, ptr %5, align 8
  %18 = getelementptr inbounds [46 x i8], ptr %10, i64 0, i64 0
  call void @address_to_str_buf(ptr noundef %17, ptr noundef %18, i32 noundef 46)
  %19 = load ptr, ptr %6, align 8
  %20 = getelementptr inbounds [46 x i8], ptr %11, i64 0, i64 0
  call void @address_to_str_buf(ptr noundef %19, ptr noundef %20, i32 noundef 46)
  %21 = load ptr, ptr %9, align 8
  %22 = getelementptr inbounds [46 x i8], ptr %10, i64 0, i64 0
  %23 = load i32, ptr %7, align 4
  %24 = load ptr, ptr %9, align 8
  %25 = getelementptr inbounds [46 x i8], ptr %11, i64 0, i64 0
  %26 = load i32, ptr %8, align 4
  %27 = load ptr, ptr %9, align 8
  %28 = getelementptr inbounds [46 x i8], ptr %11, i64 0, i64 0
  %29 = load i32, ptr %8, align 4
  %30 = load ptr, ptr %9, align 8
  %31 = getelementptr inbounds [46 x i8], ptr %10, i64 0, i64 0
  %32 = load i32, ptr %7, align 4
  %33 = call noalias ptr (ptr, ptr, ...) @wmem_strdup_printf(ptr noundef null, ptr noundef @.str.281, ptr noundef %21, ptr noundef %22, i32 noundef %23, ptr noundef %24, ptr noundef %25, i32 noundef %26, ptr noundef %27, ptr noundef %28, i32 noundef %29, ptr noundef %30, ptr noundef %31, i32 noundef %32)
  call void @llvm.lifetime.end.p0(i64 46, ptr %11) #11
  call void @llvm.lifetime.end.p0(i64 46, ptr %10) #11
  call void @llvm.lifetime.end.p0(i64 8, ptr %9) #11
  ret ptr %33
}