; Function Attrs: null_pointer_is_valid sspstrong uwtable
define internal noalias ptr @dccp_follow_address_filter(ptr noundef %0, ptr noundef %1, i32 noundef %2, i32 noundef %3) #1 {
  %5 = alloca [46 x i8], align 16
  %6 = alloca [46 x i8], align 16
  %7 = load i32, ptr %0, align 8
  %8 = icmp eq i32 %7, 3
  %9 = select i1 %8, ptr @.str.280, ptr @.str.243
  call void @llvm.lifetime.start.p0(i64 46, ptr nonnull %5) #11
  call void @llvm.lifetime.start.p0(i64 46, ptr nonnull %6) #11
  call void @address_to_str_buf(ptr noundef %0, ptr noundef nonnull %5, i32 noundef 46)
  call void @address_to_str_buf(ptr noundef %1, ptr noundef nonnull %6, i32 noundef 46)
  %10 = call noalias ptr (ptr, ptr, ...) @wmem_strdup_printf(ptr noundef null, ptr noundef nonnull @.str.281, ptr noundef nonnull %9, ptr noundef nonnull %5, i32 noundef %2, ptr noundef nonnull %9, ptr noundef nonnull %6, i32 noundef %3, ptr noundef nonnull %9, ptr noundef nonnull %6, i32 noundef %3, ptr noundef nonnull %9, ptr noundef nonnull %5, i32 noundef %2)
  call void @llvm.lifetime.end.p0(i64 46, ptr nonnull %6) #11
  call void @llvm.lifetime.end.p0(i64 46, ptr nonnull %5) #11
  ret ptr %10
}